target datalayout = "e-m:e-p270:32:32-p271:32:32-p272:64:64-i64:64-i128:128-f80:128-n8:16:32:64-S128"
target triple = "x86_64-pc-linux-gnu"

%"class.std::basic_ostream" = type { ptr, %"class.std::basic_ios" }
%"class.std::basic_ios" = type { %"class.std::ios_base", ptr, i8, i8, ptr, ptr, ptr, ptr }
%"class.std::ios_base" = type { ptr, i64, i64, i32, i32, i32, ptr, %"struct.std::ios_base::_Words", [8 x %"struct.std::ios_base::_Words"], i32, ptr, %"class.std::locale" }
%"struct.std::ios_base::_Words" = type { ptr, i64 }
%"class.std::locale" = type { ptr }
%union.pthread_mutex_t = type { %struct.__pthread_mutex_s }
%struct.__pthread_mutex_s = type { i32, i32, i32, i32, i32, i16, i16, %struct.__pthread_internal_list }
%struct.__pthread_internal_list = type { ptr, ptr }
%"class.Stockfish::(anonymous namespace)::Logger" = type { %"class.std::basic_ofstream", %"struct.Stockfish::(anonymous namespace)::Tie", %"struct.Stockfish::(anonymous namespace)::Tie" }
%"class.std::basic_ofstream" = type { %"class.std::basic_ostream.base", %"class.std::basic_filebuf", %"class.std::basic_ios" }
%"class.std::basic_ostream.base" = type { ptr }
%"class.std::basic_filebuf" = type { %"class.std::basic_streambuf", %union.pthread_mutex_t, %"class.std::__basic_file", i32, %struct.__mbstate_t, %struct.__mbstate_t, %struct.__mbstate_t, ptr, i64, i8, i8, i8, i8, ptr, ptr, i8, ptr, ptr, i64, ptr, ptr }
%"class.std::basic_streambuf" = type { ptr, ptr, ptr, ptr, ptr, ptr, ptr, %"class.std::locale" }
%"class.std::__basic_file" = type <{ ptr, i8, [7 x i8] }>
%struct.__mbstate_t = type { i32, %union.anon.3 }
%union.anon.3 = type { i32 }
%"struct.Stockfish::(anonymous namespace)::Tie" = type { %"class.std::basic_streambuf", ptr, ptr }
%"class.std::basic_istream" = type { ptr, i64, %"class.std::basic_ios" }

@_ZSt4cout = external global %"class.std::basic_ostream", align 8
@_ZSt3cin = external global %"class.std::basic_istream", align 8

; Function Attrs: mustprogress nounwind uwtable
define internal void @_ZN9Stockfish12_GLOBAL__N_13TieC2EPSt15basic_streambufIcSt11char_traitsIcEES6_(ptr noundef nonnull align 8 dereferenceable(80) %0, ptr noundef %1, ptr noundef %2) unnamed_addr #4 align 2 {
  %4 = alloca ptr, align 8
  %5 = alloca ptr, align 8
  %6 = alloca ptr, align 8
  store ptr %0, ptr %4, align 8
  store ptr %1, ptr %5, align 8
  store ptr %2, ptr %6, align 8
  %7 = load ptr, ptr %4, align 8
  call void @_ZNSt15basic_streambufIcSt11char_traitsIcEEC2Ev(ptr noundef nonnull align 8 dereferenceable(64) %7)
  store ptr getelementptr inbounds ({ [16 x ptr] }, ptr @_ZTVN9Stockfish12_GLOBAL__N_13TieE, i32 0, i32 0, i32 2), ptr %7, align 8
  %8 = getelementptr inbounds %"struct.Stockfish::(anonymous namespace)::Tie", ptr %7, i32 0, i32 1
  %9 = load ptr, ptr %5, align 8
  store ptr %9, ptr %8, align 8
  %10 = getelementptr inbounds %"struct.Stockfish::(anonymous namespace)::Tie", ptr %7, i32 0, i32 2
  %11 = load ptr, ptr %6, align 8
  store ptr %11, ptr %10, align 8
  ret void
}

; Function Attrs: mustprogress nounwind uwtable
define internal void @_ZN9Stockfish12_GLOBAL__N_16LoggerC2Ev(ptr noundef nonnull align 8 dereferenceable(672) %0) unnamed_addr #4 align 2 {
  %2 = alloca ptr, align 8
  store ptr %0, ptr %2, align 8
  %3 = load ptr, ptr %2, align 8
  %4 = getelementptr inbounds %"class.Stockfish::(anonymous namespace)::Logger", ptr %3, i32 0, i32 0
  call void @_ZNSt14basic_ofstreamIcSt11char_traitsIcEEC1Ev(ptr noundef nonnull align 8 dereferenceable(248) %4)
  %5 = getelementptr inbounds %"class.Stockfish::(anonymous namespace)::Logger", ptr %3, i32 0, i32 1
  %6 = load ptr, ptr @_ZSt3cin, align 8
  %7 = getelementptr i8, ptr %6, i64 -24
  %8 = load i64, ptr %7, align 8
  %9 = getelementptr inbounds i8, ptr @_ZSt3cin, i64 %8
  %10 = call noundef ptr @_ZNKSt9basic_iosIcSt11char_traitsIcEE5rdbufEv(ptr noundef nonnull align 8 dereferenceable(264) %9)
  %11 = getelementptr inbounds %"class.Stockfish::(anonymous namespace)::Logger", ptr %3, i32 0, i32 0
  %12 = call noundef ptr @_ZNKSt14basic_ofstreamIcSt11char_traitsIcEE5rdbufEv(ptr noundef nonnull align 8 dereferenceable(248) %11)
  call void @_ZN9Stockfish12_GLOBAL__N_13TieC2EPSt15basic_streambufIcSt11char_traitsIcEES6_(ptr noundef nonnull align 8 dereferenceable(80) %5, ptr noundef %10, ptr noundef %12)
  %13 = getelementptr inbounds %"class.Stockfish::(anonymous namespace)::Logger", ptr %3, i32 0, i32 2
  %14 = load ptr, ptr @_ZSt4cout, align 8
  %15 = getelementptr i8, ptr %14, i64 -24
  %16 = load i64, ptr %15, align 8
  %17 = getelementptr inbounds i8, ptr @_ZSt4cout, i64 %16
  %18 = call noundef ptr @_ZNKSt9basic_iosIcSt11char_traitsIcEE5rdbufEv(ptr noundef nonnull align 8 dereferenceable(264) %17)
  %19 = getelementptr inbounds %"class.Stockfish::(anonymous namespace)::Logger", ptr %3, i32 0, i32 0
  %20 = call noundef ptr @_ZNKSt14basic_ofstreamIcSt11char_traitsIcEE5rdbufEv(ptr noundef nonnull align 8 dereferenceable(248) %19)
  call void @_ZN9Stockfish12_GLOBAL__N_13TieC2EPSt15basic_streambufIcSt11char_traitsIcEES6_(ptr noundef nonnull align 8 dereferenceable(80) %13, ptr noundef %18, ptr noundef %20)
  ret void
}