; Function Attrs: mustprogress nounwind uwtable
define internal fastcc void @_ZN9Stockfish12_GLOBAL__N_16LoggerC2Ev() unnamed_addr #3 align 2 {
  tail call void @_ZNSt14basic_ofstreamIcSt11char_traitsIcEEC1Ev(ptr noundef nonnull align 8 dereferenceable(248) @_ZZN9Stockfish12_GLOBAL__N_16Logger5startERKNSt7__cxx1112basic_stringIcSt11char_traitsIcESaIcEEEE1l) #21
  %1 = load ptr, ptr @_ZSt3cin, align 8
  %2 = getelementptr i8, ptr %1, i64 -24
  %3 = load i64, ptr %2, align 8
  %4 = getelementptr inbounds i8, ptr @_ZSt3cin, i64 %3
  %5 = tail call noundef ptr @_ZNKSt9basic_iosIcSt11char_traitsIcEE5rdbufEv(ptr noundef nonnull align 8 dereferenceable(264) %4) #21
  %6 = tail call noundef ptr @_ZNKSt14basic_ofstreamIcSt11char_traitsIcEE5rdbufEv(ptr noundef nonnull align 8 dereferenceable(248) @_ZZN9Stockfish12_GLOBAL__N_16Logger5startERKNSt7__cxx1112basic_stringIcSt11char_traitsIcESaIcEEEE1l) #21
  tail call void @_ZNSt15basic_streambufIcSt11char_traitsIcEEC2Ev(ptr noundef nonnull align 8 dereferenceable(64) getelementptr inbounds (%"class.Stockfish::(anonymous namespace)::Logger", ptr @_ZZN9Stockfish12_GLOBAL__N_16Logger5startERKNSt7__cxx1112basic_stringIcSt11char_traitsIcESaIcEEEE1l, i64 0, i32 1)) #21
  store ptr getelementptr inbounds ({ [16 x ptr] }, ptr @_ZTVN9Stockfish12_GLOBAL__N_13TieE, i64 0, i32 0, i64 2), ptr getelementptr inbounds (%"class.Stockfish::(anonymous namespace)::Logger", ptr @_ZZN9Stockfish12_GLOBAL__N_16Logger5startERKNSt7__cxx1112basic_stringIcSt11char_traitsIcESaIcEEEE1l, i64 0, i32 1), align 8
  store ptr %5, ptr getelementptr inbounds (%"class.Stockfish::(anonymous namespace)::Logger", ptr @_ZZN9Stockfish12_GLOBAL__N_16Logger5startERKNSt7__cxx1112basic_stringIcSt11char_traitsIcESaIcEEEE1l, i64 0, i32 1, i32 1), align 8
  store ptr %6, ptr getelementptr inbounds (%"class.Stockfish::(anonymous namespace)::Logger", ptr @_ZZN9Stockfish12_GLOBAL__N_16Logger5startERKNSt7__cxx1112basic_stringIcSt11char_traitsIcESaIcEEEE1l, i64 0, i32 1, i32 2), align 8
  %7 = load ptr, ptr @_ZSt4cout, align 8
  %8 = getelementptr i8, ptr %7, i64 -24
  %9 = load i64, ptr %8, align 8
  %10 = getelementptr inbounds i8, ptr @_ZSt4cout, i64 %9
  %11 = tail call noundef ptr @_ZNKSt9basic_iosIcSt11char_traitsIcEE5rdbufEv(ptr noundef nonnull align 8 dereferenceable(264) %10) #21
  %12 = tail call noundef ptr @_ZNKSt14basic_ofstreamIcSt11char_traitsIcEE5rdbufEv(ptr noundef nonnull align 8 dereferenceable(248) @_ZZN9Stockfish12_GLOBAL__N_16Logger5startERKNSt7__cxx1112basic_stringIcSt11char_traitsIcESaIcEEEE1l) #21
  tail call void @_ZNSt15basic_streambufIcSt11char_traitsIcEEC2Ev(ptr noundef nonnull align 8 dereferenceable(64) getelementptr inbounds (%"class.Stockfish::(anonymous namespace)::Logger", ptr @_ZZN9Stockfish12_GLOBAL__N_16Logger5startERKNSt7__cxx1112basic_stringIcSt11char_traitsIcESaIcEEEE1l, i64 0, i32 2)) #21
  store ptr getelementptr inbounds ({ [16 x ptr] }, ptr @_ZTVN9Stockfish12_GLOBAL__N_13TieE, i64 0, i32 0, i64 2), ptr getelementptr inbounds (%"class.Stockfish::(anonymous namespace)::Logger", ptr @_ZZN9Stockfish12_GLOBAL__N_16Logger5startERKNSt7__cxx1112basic_stringIcSt11char_traitsIcESaIcEEEE1l, i64 0, i32 2), align 8
  store ptr %11, ptr getelementptr inbounds (%"class.Stockfish::(anonymous namespace)::Logger", ptr @_ZZN9Stockfish12_GLOBAL__N_16Logger5startERKNSt7__cxx1112basic_stringIcSt11char_traitsIcESaIcEEEE1l, i64 0, i32 2, i32 1), align 8
  store ptr %12, ptr getelementptr inbounds (%"class.Stockfish::(anonymous namespace)::Logger", ptr @_ZZN9Stockfish12_GLOBAL__N_16Logger5startERKNSt7__cxx1112basic_stringIcSt11char_traitsIcESaIcEEEE1l, i64 0, i32 2, i32 2), align 8
  ret void
}